target datalayout = "e-m:e-p270:32:32-p271:32:32-p272:64:64-i64:64-i128:128-f80:128-n8:16:32:64-S128"
target triple = "x86_64-pc-linux-gnu"

%struct.MemoryRegion = type { %struct.Object, i8, i8, i8, i8, i8, i8, i8, i8, i8, i8, ptr, ptr, ptr, ptr, ptr, ptr, i32, i128, i64, ptr, i64, i8, i8, i8, i8, ptr, i64, i32, %union.anon, %union.anon.0, %union.anon.1, ptr, i32, ptr, ptr, i8 }
%struct.Object = type { ptr, ptr, ptr, i32, ptr }
%union.anon = type { %struct.QTailQLink }
%struct.QTailQLink = type { ptr, ptr }
%union.anon.0 = type { %struct.QTailQLink }
%union.anon.1 = type { %struct.QTailQLink }
%struct.VFIOPCIDevice = type { %struct.PCIDevice, %struct.VFIODevice, %struct.VFIOINTx, i32, ptr, i64, i32, i64, ptr, i32, ptr, ptr, i32, i32, [6 x %struct.VFIOBAR], ptr, ptr, %struct.PCIHostDeviceAddress, %struct.QemuUUID, %struct.EventNotifier, %struct.EventNotifier, ptr, i32, i32, i32, i32, i32, i32, i32, i32, i32, i32, i32, i8, i8, i8, i8, i8, i8, i8, i8, i8, i8, i8, i8, i8, i8, i32, i8, i8, i8, ptr, %struct.Notifier }
%struct.PCIDevice = type { %struct.DeviceState, i8, i8, ptr, ptr, ptr, ptr, ptr, i32, %struct.PCIReqIDCache, [64 x i8], [7 x %struct.PCIIORegion], %struct.AddressSpace, %struct.MemoryRegion, %struct.MemoryRegion, ptr, ptr, [3 x ptr], i8, i8, i32, i8, i32, ptr, ptr, ptr, ptr, ptr, ptr, %struct.MemoryRegion, %struct.MemoryRegion, %struct.MemoryRegion, ptr, i8, i32, i8, %struct.PCIExpressDevice, ptr, ptr, i32, i8, %struct.MemoryRegion, i32, ptr, ptr, ptr, ptr, i16, %struct.DOECap, ptr, i32, i32 }
%struct.DeviceState = type { %struct.Object, ptr, ptr, i8, i8, i64, i32, i8, ptr, %struct.NamedGPIOListHead, %struct.NamedClockListHead, %struct.BusStateHead, i32, i32, i32, %struct.ResettableState, ptr, %struct.MemReentrancyGuard }
%struct.NamedGPIOListHead = type { ptr }
%struct.NamedClockListHead = type { ptr }
%struct.BusStateHead = type { ptr }
%struct.ResettableState = type { i32, i8, i8 }
%struct.MemReentrancyGuard = type { i8 }
%struct.PCIReqIDCache = type { ptr, i32 }
%struct.PCIIORegion = type { i64, i64, i8, ptr, ptr }
%struct.AddressSpace = type { %struct.rcu_head, ptr, ptr, ptr, i32, i32, ptr, %union.anon.4, %union.anon.5, i64, i64, %struct.QemuMutex, %struct.anon.6 }
%struct.rcu_head = type { ptr, ptr }
%union.anon.4 = type { %struct.QTailQLink }
%union.anon.5 = type { %struct.QTailQLink }
%struct.QemuMutex = type { %union.pthread_mutex_t, i8 }
%union.pthread_mutex_t = type { %struct.__pthread_mutex_s }
%struct.__pthread_mutex_s = type { i32, i32, i32, i32, i32, i16, i16, %struct.__pthread_internal_list }
%struct.__pthread_internal_list = type { ptr, ptr }
%struct.anon.6 = type { ptr }
%struct.PCIExpressDevice = type { i8, i8, i8, i16, %struct.PCIEAERLog, i16, i16, i16, %struct.PCIESriovPF, %struct.PCIESriovVF }
%struct.PCIEAERLog = type { i16, i16, ptr }
%struct.PCIESriovPF = type { i16, [7 x i8], ptr, ptr }
%struct.PCIESriovVF = type { ptr, i16 }
%struct.DOECap = type { ptr, i16, %struct.anon.7, %struct.anon.8, %struct.anon.9, ptr, ptr, i32, i32, i32, ptr, i16, i32 }
%struct.anon.7 = type { i8, i16 }
%struct.anon.8 = type { i8, i8, i8 }
%struct.anon.9 = type { i8, i8, i8, i8 }
%struct.VFIODevice = type { %struct.anon.10, %struct.anon.11, %struct.anon.12, ptr, ptr, ptr, ptr, ptr, i32, i32, i8, i8, i8, i8, i8, i32, i8, ptr, i32, i32, i32, ptr, ptr, i32, i32, i8, i8, i8, ptr, i32, ptr, ptr, %struct.anon.13 }
%struct.anon.10 = type { ptr, ptr }
%struct.anon.11 = type { ptr, ptr }
%struct.anon.12 = type { ptr, ptr }
%struct.anon.13 = type { ptr, ptr }
%struct.VFIOINTx = type { i8, i8, i8, %struct.EventNotifier, %struct.EventNotifier, %struct.PCIINTxRoute, i32, ptr }
%struct.PCIINTxRoute = type { i32, i32 }
%struct.VFIOBAR = type { %struct.VFIORegion, ptr, i64, i8, i8, i8, %struct.anon.14 }
%struct.VFIORegion = type { ptr, i64, ptr, i64, i32, i32, ptr, i8 }
%struct.anon.14 = type { ptr }
%struct.PCIHostDeviceAddress = type { i32, i32, i32, i32 }
%struct.QemuUUID = type { %union.anon.15 }
%union.anon.15 = type { %struct.anon.16 }
%struct.anon.16 = type { i32, i16, i16, i8, i8, [6 x i8] }
%struct.EventNotifier = type { i32, i32, i8 }
%struct.Notifier = type { ptr, %struct.anon.17 }
%struct.anon.17 = type { ptr, ptr }
%struct.timeval = type { i64, i64 }

@trace_events_enabled_count = external global i32, align 4
@message_with_timestamp = external global i8, align 1
@qemu_loglevel = external global i32, align 4
@_TRACE_VFIO_INTX_DISABLE_DSTATE = external global i16, align 2
@.str.56 = private unnamed_addr constant [38 x i8] c"%d@%zu.%06zu:vfio_intx_disable  (%s)\0A\00", align 1
@.str.57 = private unnamed_addr constant [25 x i8] c"vfio_intx_disable  (%s)\0A\00", align 1

; Function Attrs: inlinehint nounwind sspstrong uwtable
define internal zeroext i1 @qemu_loglevel_mask(i32 noundef %0) #3 {
  %2 = alloca i32, align 4
  store i32 %0, ptr %2, align 4
  %3 = load i32, ptr @qemu_loglevel, align 4
  %4 = load i32, ptr %2, align 4
  %5 = and i32 %3, %4
  %6 = icmp ne i32 %5, 0
  ret i1 %6
}

; Function Attrs: inlinehint nounwind sspstrong uwtable
define internal void @_nocheck__trace_vfio_intx_disable(ptr noundef %0) #3 {
  %2 = alloca ptr, align 8
  %3 = alloca %struct.timeval, align 8
  store ptr %0, ptr %2, align 8
  %4 = load i32, ptr @trace_events_enabled_count, align 4
  %5 = icmp ne i32 %4, 0
  %6 = xor i1 %5, true
  %7 = xor i1 %6, true
  %8 = zext i1 %7 to i32
  %9 = sext i32 %8 to i64
  %10 = call i64 @llvm.expect.i64(i64 %9, i64 0)
  %11 = icmp ne i64 %10, 0
  br i1 %11, label %12, label %32

12:                                               ; preds = %1
  %13 = load i16, ptr @_TRACE_VFIO_INTX_DISABLE_DSTATE, align 2
  %14 = zext i16 %13 to i32
  %15 = icmp ne i32 %14, 0
  br i1 %15, label %16, label %32

16:                                               ; preds = %12
  %17 = call zeroext i1 @qemu_loglevel_mask(i32 noundef 32768)
  br i1 %17, label %18, label %32

18:                                               ; preds = %16
  %19 = load i8, ptr @message_with_timestamp, align 1, !range !9, !noundef !10
  %20 = trunc i8 %19 to i1
  br i1 %20, label %21, label %29

21:                                               ; preds = %18
  call void @llvm.lifetime.start.p0(i64 16, ptr %3) #19
  call void @llvm.memset.p0.i64(ptr align 8 %3, i8 0, i64 16, i1 false), !annotation !4
  %22 = call i32 @gettimeofday(ptr noundef %3, ptr noundef null) #19
  %23 = call i32 @qemu_get_thread_id()
  %24 = getelementptr inbounds nuw %struct.timeval, ptr %3, i32 0, i32 0
  %25 = load i64, ptr %24, align 8
  %26 = getelementptr inbounds nuw %struct.timeval, ptr %3, i32 0, i32 1
  %27 = load i64, ptr %26, align 8
  %28 = load ptr, ptr %2, align 8
  call void (ptr, ...) @qemu_log(ptr noundef @.str.56, i32 noundef %23, i64 noundef %25, i64 noundef %27, ptr noundef %28)
  call void @llvm.lifetime.end.p0(i64 16, ptr %3) #19
  br label %31

29:                                               ; preds = %18
  %30 = load ptr, ptr %2, align 8
  call void (ptr, ...) @qemu_log(ptr noundef @.str.57, ptr noundef %30)
  br label %31

31:                                               ; preds = %29, %21
  br label %32

32:                                               ; preds = %31, %16, %12, %1
  ret void
}

; Function Attrs: inlinehint nounwind sspstrong uwtable
define internal void @trace_vfio_intx_disable(ptr noundef %0) #3 {
  %2 = alloca ptr, align 8
  store ptr %0, ptr %2, align 8
  %3 = load ptr, ptr %2, align 8
  call void @_nocheck__trace_vfio_intx_disable(ptr noundef %3)
  ret void
}

; Function Attrs: nounwind sspstrong uwtable
define internal void @vfio_mmap_set_enabled(ptr noundef %0, i1 noundef zeroext %1) #0 {
  %3 = alloca ptr, align 8
  %4 = alloca i8, align 1
  %5 = alloca i32, align 4
  store ptr %0, ptr %3, align 8
  %6 = zext i1 %1 to i8
  store i8 %6, ptr %4, align 1
  call void @llvm.lifetime.start.p0(i64 4, ptr %5) #19
  store i32 0, ptr %5, align 4, !annotation !4
  store i32 0, ptr %5, align 4
  br label %7

7:                                                ; preds = %19, %2
  %8 = load i32, ptr %5, align 4
  %9 = icmp slt i32 %8, 6
  br i1 %9, label %10, label %22

10:                                               ; preds = %7
  %11 = load ptr, ptr %3, align 8
  %12 = getelementptr inbounds nuw %struct.VFIOPCIDevice, ptr %11, i32 0, i32 14
  %13 = load i32, ptr %5, align 4
  %14 = sext i32 %13 to i64
  %15 = getelementptr inbounds [6 x %struct.VFIOBAR], ptr %12, i64 0, i64 %14
  %16 = getelementptr inbounds nuw %struct.VFIOBAR, ptr %15, i32 0, i32 0
  %17 = load i8, ptr %4, align 1, !range !9, !noundef !10
  %18 = trunc i8 %17 to i1
  call void @vfio_region_mmaps_set_enabled(ptr noundef %16, i1 noundef zeroext %18)
  br label %19

19:                                               ; preds = %10
  %20 = load i32, ptr %5, align 4
  %21 = add i32 %20, 1
  store i32 %21, ptr %5, align 4
  br label %7, !llvm.loop !18

22:                                               ; preds = %7
  call void @llvm.lifetime.end.p0(i64 4, ptr %5) #19
  ret void
}

; Function Attrs: inlinehint nounwind sspstrong uwtable
define internal void @pci_irq_deassert(ptr noundef %0) #3 {
  %2 = alloca ptr, align 8
  store ptr %0, ptr %2, align 8
  %3 = load ptr, ptr %2, align 8
  call void @pci_set_irq(ptr noundef %3, i32 noundef 0)
  ret void
}

; Function Attrs: nounwind sspstrong uwtable
define internal void @vfio_intx_disable_kvm(ptr noundef %0) #0 {
  %2 = alloca ptr, align 8
  store ptr %0, ptr %2, align 8
  ret void
}

; Function Attrs: nounwind sspstrong uwtable
define internal void @vfio_intx_disable(ptr noundef %0) #0 {
  %2 = alloca ptr, align 8
  %3 = alloca i32, align 4
  store ptr %0, ptr %2, align 8
  call void @llvm.lifetime.start.p0(i64 4, ptr %3) #19
  store i32 0, ptr %3, align 4, !annotation !4
  %4 = load ptr, ptr %2, align 8
  %5 = getelementptr inbounds nuw %struct.VFIOPCIDevice, ptr %4, i32 0, i32 2
  %6 = getelementptr inbounds nuw %struct.VFIOINTx, ptr %5, i32 0, i32 7
  %7 = load ptr, ptr %6, align 8
  call void @timer_del(ptr noundef %7)
  %8 = load ptr, ptr %2, align 8
  call void @vfio_intx_disable_kvm(ptr noundef %8)
  %9 = load ptr, ptr %2, align 8
  %10 = getelementptr inbounds nuw %struct.VFIOPCIDevice, ptr %9, i32 0, i32 1
  call void @vfio_disable_irqindex(ptr noundef %10, i32 noundef 0)
  %11 = load ptr, ptr %2, align 8
  %12 = getelementptr inbounds nuw %struct.VFIOPCIDevice, ptr %11, i32 0, i32 2
  %13 = getelementptr inbounds nuw %struct.VFIOINTx, ptr %12, i32 0, i32 0
  store i8 0, ptr %13, align 8
  %14 = load ptr, ptr %2, align 8
  %15 = getelementptr inbounds nuw %struct.VFIOPCIDevice, ptr %14, i32 0, i32 0
  call void @pci_irq_deassert(ptr noundef %15)
  %16 = load ptr, ptr %2, align 8
  call void @vfio_mmap_set_enabled(ptr noundef %16, i1 noundef zeroext true)
  %17 = load ptr, ptr %2, align 8
  %18 = getelementptr inbounds nuw %struct.VFIOPCIDevice, ptr %17, i32 0, i32 2
  %19 = getelementptr inbounds nuw %struct.VFIOINTx, ptr %18, i32 0, i32 3
  %20 = call i32 @event_notifier_get_fd(ptr noundef %19)
  store i32 %20, ptr %3, align 4
  %21 = load i32, ptr %3, align 4
  %22 = load ptr, ptr %2, align 8
  call void @qemu_set_fd_handler(i32 noundef %21, ptr noundef null, ptr noundef null, ptr noundef %22)
  %23 = load ptr, ptr %2, align 8
  %24 = getelementptr inbounds nuw %struct.VFIOPCIDevice, ptr %23, i32 0, i32 2
  %25 = getelementptr inbounds nuw %struct.VFIOINTx, ptr %24, i32 0, i32 3
  call void @event_notifier_cleanup(ptr noundef %25)
  %26 = load ptr, ptr %2, align 8
  %27 = getelementptr inbounds nuw %struct.VFIOPCIDevice, ptr %26, i32 0, i32 13
  store i32 0, ptr %27, align 4
  %28 = load ptr, ptr %2, align 8
  %29 = getelementptr inbounds nuw %struct.VFIOPCIDevice, ptr %28, i32 0, i32 1
  %30 = getelementptr inbounds nuw %struct.VFIODevice, ptr %29, i32 0, i32 6
  %31 = load ptr, ptr %30, align 8
  call void @trace_vfio_intx_disable(ptr noundef %31)
  call void @llvm.lifetime.end.p0(i64 4, ptr %3) #19
  ret void
}