; Function Attrs: nounwind sspstrong uwtable
define internal fastcc void @vfio_intx_disable(ptr noundef %0) unnamed_addr #0 {
  %2 = alloca %struct.timeval, align 8
  %3 = getelementptr inbounds nuw i8, ptr %0, i64 2968
  %4 = getelementptr inbounds nuw i8, ptr %0, i64 3008
  %5 = load ptr, ptr %4, align 8
  tail call void @timer_del(ptr noundef %5) #26
  %6 = getelementptr inbounds nuw i8, ptr %0, i64 2752
  tail call void @vfio_disable_irqindex(ptr noundef nonnull %6, i32 noundef 0) #26
  store i8 0, ptr %3, align 8
  tail call void @pci_set_irq(ptr noundef %0, i32 noundef 0) #26
  %7 = getelementptr inbounds nuw i8, ptr %0, i64 3096
  br label %8

8:                                                ; preds = %8, %1
  %indvars.iv.i = phi i64 [ 0, %1 ], [ %indvars.iv.next.i, %8 ]
  %9 = getelementptr inbounds nuw [6 x %struct.VFIOBAR], ptr %7, i64 0, i64 %indvars.iv.i
  tail call void @vfio_region_mmaps_set_enabled(ptr noundef nonnull %9, i1 noundef zeroext true) #26
  %indvars.iv.next.i = add nuw nsw i64 %indvars.iv.i, 1
  %exitcond.not.i = icmp eq i64 %indvars.iv.next.i, 6
  br i1 %exitcond.not.i, label %vfio_mmap_set_enabled.exit, label %8, !llvm.loop !25

vfio_mmap_set_enabled.exit:                       ; preds = %8
  %10 = getelementptr inbounds nuw i8, ptr %0, i64 2972
  %11 = tail call i32 @event_notifier_get_fd(ptr noundef nonnull %10) #26
  tail call void @qemu_set_fd_handler(i32 noundef %11, ptr noundef null, ptr noundef null, ptr noundef nonnull %0) #26
  tail call void @event_notifier_cleanup(ptr noundef nonnull %10) #26
  %12 = getelementptr inbounds nuw i8, ptr %0, i64 3092
  store i32 0, ptr %12, align 4
  %13 = getelementptr inbounds nuw i8, ptr %0, i64 2824
  %14 = load ptr, ptr %13, align 8
  %15 = load i32, ptr @trace_events_enabled_count, align 4
  %.not.i.i = icmp eq i32 %15, 0
  br i1 %.not.i.i, label %trace_vfio_intx_disable.exit, label %16, !prof !5

16:                                               ; preds = %vfio_mmap_set_enabled.exit
  %17 = load i16, ptr @_TRACE_VFIO_INTX_DISABLE_DSTATE, align 2
  %.not2.i.i = icmp eq i16 %17, 0
  br i1 %.not2.i.i, label %trace_vfio_intx_disable.exit, label %18

18:                                               ; preds = %16
  %19 = load i32, ptr @qemu_loglevel, align 4
  %20 = and i32 %19, 32768
  %.not3.i.i = icmp eq i32 %20, 0
  br i1 %.not3.i.i, label %trace_vfio_intx_disable.exit, label %21

21:                                               ; preds = %18
  %22 = load i8, ptr @message_with_timestamp, align 1, !range !6, !noundef !7
  %23 = trunc nuw i8 %22 to i1
  br i1 %23, label %24, label %30

24:                                               ; preds = %21
  call void @llvm.lifetime.start.p0(i64 16, ptr nonnull %2) #26
  call void @llvm.memset.p0.i64(ptr noundef nonnull align 8 dereferenceable(16) %2, i8 0, i64 16, i1 false), !annotation !4
  %25 = call i32 @gettimeofday(ptr noundef nonnull %2, ptr noundef null) #26
  %26 = tail call i32 @qemu_get_thread_id() #26
  %27 = load i64, ptr %2, align 8
  %28 = getelementptr inbounds nuw i8, ptr %2, i64 8
  %29 = load i64, ptr %28, align 8
  tail call void (ptr, ...) @qemu_log(ptr noundef nonnull @.str.56, i32 noundef %26, i64 noundef %27, i64 noundef %29, ptr noundef %14) #26
  call void @llvm.lifetime.end.p0(i64 16, ptr nonnull %2) #26
  br label %trace_vfio_intx_disable.exit

30:                                               ; preds = %21
  tail call void (ptr, ...) @qemu_log(ptr noundef nonnull @.str.57, ptr noundef %14) #26
  br label %trace_vfio_intx_disable.exit

trace_vfio_intx_disable.exit:                     ; preds = %vfio_mmap_set_enabled.exit, %16, %18, %24, %30
  ret void
}